target datalayout = "e-m:e-p270:32:32-p271:32:32-p272:64:64-i64:64-i128:128-f80:128-n8:16:32:64-S128"
target triple = "x86_64-pc-linux-gnu"

%struct.Model = type { [257 x i16], [257 x i16], [257 x i8], i32, i32, i32 }

; Function Attrs: nounwind uwtable
define internal i32 @model_calc_threshold(ptr noundef %0) #0 {
  %2 = alloca ptr, align 8
  %3 = alloca i32, align 4
  store ptr %0, ptr %2, align 8, !tbaa !4
  call void @llvm.lifetime.start.p0(i64 4, ptr %3) #8
  %4 = load ptr, ptr %2, align 8, !tbaa !4
  %5 = getelementptr inbounds nuw %struct.Model, ptr %4, i32 0, i32 1
  %6 = load ptr, ptr %2, align 8, !tbaa !4
  %7 = getelementptr inbounds nuw %struct.Model, ptr %6, i32 0, i32 3
  %8 = load i32, ptr %7, align 4, !tbaa !20
  %9 = sext i32 %8 to i64
  %10 = getelementptr inbounds [257 x i16], ptr %5, i64 0, i64 %9
  %11 = load i16, ptr %10, align 2, !tbaa !11
  %12 = sext i16 %11 to i32
  %13 = mul nsw i32 2, %12
  %14 = sub nsw i32 %13, 1
  store i32 %14, ptr %3, align 4, !tbaa !9
  %15 = load i32, ptr %3, align 4, !tbaa !9
  %16 = ashr i32 %15, 1
  %17 = load ptr, ptr %2, align 8, !tbaa !4
  %18 = getelementptr inbounds nuw %struct.Model, ptr %17, i32 0, i32 0
  %19 = getelementptr inbounds [257 x i16], ptr %18, i64 0, i64 0
  %20 = load i16, ptr %19, align 4, !tbaa !11
  %21 = sext i16 %20 to i32
  %22 = mul nsw i32 4, %21
  %23 = add nsw i32 %16, %22
  %24 = load i32, ptr %3, align 4, !tbaa !9
  %25 = sdiv i32 %23, %24
  store i32 %25, ptr %3, align 4, !tbaa !9
  %26 = load i32, ptr %3, align 4, !tbaa !9
  %27 = icmp sgt i32 %26, 16383
  br i1 %27, label %28, label %29

28:                                               ; preds = %1
  br label %31

29:                                               ; preds = %1
  %30 = load i32, ptr %3, align 4, !tbaa !9
  br label %31

31:                                               ; preds = %29, %28
  %32 = phi i32 [ 16383, %28 ], [ %30, %29 ]
  call void @llvm.lifetime.end.p0(i64 4, ptr %3) #8
  ret i32 %32
}

; Function Attrs: nounwind uwtable
define internal void @model_rescale_weights(ptr noundef %0) #0 {
  %2 = alloca ptr, align 8
  %3 = alloca i32, align 4
  %4 = alloca i32, align 4
  store ptr %0, ptr %2, align 8, !tbaa !4
  call void @llvm.lifetime.start.p0(i64 4, ptr %3) #8
  call void @llvm.lifetime.start.p0(i64 4, ptr %4) #8
  %5 = load ptr, ptr %2, align 8, !tbaa !4
  %6 = getelementptr inbounds nuw %struct.Model, ptr %5, i32 0, i32 4
  %7 = load i32, ptr %6, align 4, !tbaa !17
  %8 = icmp eq i32 %7, -1
  br i1 %8, label %9, label %14

9:                                                ; preds = %1
  %10 = load ptr, ptr %2, align 8, !tbaa !4
  %11 = call i32 @model_calc_threshold(ptr noundef %10)
  %12 = load ptr, ptr %2, align 8, !tbaa !4
  %13 = getelementptr inbounds nuw %struct.Model, ptr %12, i32 0, i32 5
  store i32 %11, ptr %13, align 4, !tbaa !19
  br label %14

14:                                               ; preds = %9, %1
  br label %15

15:                                               ; preds = %67, %14
  %16 = load ptr, ptr %2, align 8, !tbaa !4
  %17 = getelementptr inbounds nuw %struct.Model, ptr %16, i32 0, i32 0
  %18 = getelementptr inbounds [257 x i16], ptr %17, i64 0, i64 0
  %19 = load i16, ptr %18, align 4, !tbaa !11
  %20 = sext i16 %19 to i32
  %21 = load ptr, ptr %2, align 8, !tbaa !4
  %22 = getelementptr inbounds nuw %struct.Model, ptr %21, i32 0, i32 5
  %23 = load i32, ptr %22, align 4, !tbaa !19
  %24 = icmp sgt i32 %20, %23
  br i1 %24, label %25, label %68

25:                                               ; preds = %15
  store i32 0, ptr %4, align 4, !tbaa !9
  %26 = load ptr, ptr %2, align 8, !tbaa !4
  %27 = getelementptr inbounds nuw %struct.Model, ptr %26, i32 0, i32 3
  %28 = load i32, ptr %27, align 4, !tbaa !20
  store i32 %28, ptr %3, align 4, !tbaa !9
  br label %29

29:                                               ; preds = %64, %25
  %30 = load i32, ptr %3, align 4, !tbaa !9
  %31 = icmp sge i32 %30, 0
  br i1 %31, label %32, label %67

32:                                               ; preds = %29
  %33 = load i32, ptr %4, align 4, !tbaa !9
  %34 = trunc i32 %33 to i16
  %35 = load ptr, ptr %2, align 8, !tbaa !4
  %36 = getelementptr inbounds nuw %struct.Model, ptr %35, i32 0, i32 0
  %37 = load i32, ptr %3, align 4, !tbaa !9
  %38 = sext i32 %37 to i64
  %39 = getelementptr inbounds [257 x i16], ptr %36, i64 0, i64 %38
  store i16 %34, ptr %39, align 2, !tbaa !11
  %40 = load ptr, ptr %2, align 8, !tbaa !4
  %41 = getelementptr inbounds nuw %struct.Model, ptr %40, i32 0, i32 1
  %42 = load i32, ptr %3, align 4, !tbaa !9
  %43 = sext i32 %42 to i64
  %44 = getelementptr inbounds [257 x i16], ptr %41, i64 0, i64 %43
  %45 = load i16, ptr %44, align 2, !tbaa !11
  %46 = sext i16 %45 to i32
  %47 = add nsw i32 %46, 1
  %48 = ashr i32 %47, 1
  %49 = trunc i32 %48 to i16
  %50 = load ptr, ptr %2, align 8, !tbaa !4
  %51 = getelementptr inbounds nuw %struct.Model, ptr %50, i32 0, i32 1
  %52 = load i32, ptr %3, align 4, !tbaa !9
  %53 = sext i32 %52 to i64
  %54 = getelementptr inbounds [257 x i16], ptr %51, i64 0, i64 %53
  store i16 %49, ptr %54, align 2, !tbaa !11
  %55 = load ptr, ptr %2, align 8, !tbaa !4
  %56 = getelementptr inbounds nuw %struct.Model, ptr %55, i32 0, i32 1
  %57 = load i32, ptr %3, align 4, !tbaa !9
  %58 = sext i32 %57 to i64
  %59 = getelementptr inbounds [257 x i16], ptr %56, i64 0, i64 %58
  %60 = load i16, ptr %59, align 2, !tbaa !11
  %61 = sext i16 %60 to i32
  %62 = load i32, ptr %4, align 4, !tbaa !9
  %63 = add nsw i32 %62, %61
  store i32 %63, ptr %4, align 4, !tbaa !9
  br label %64

64:                                               ; preds = %32
  %65 = load i32, ptr %3, align 4, !tbaa !9
  %66 = add nsw i32 %65, -1
  store i32 %66, ptr %3, align 4, !tbaa !9
  br label %29, !llvm.loop !21

67:                                               ; preds = %29
  br label %15, !llvm.loop !22

68:                                               ; preds = %15
  call void @llvm.lifetime.end.p0(i64 4, ptr %4) #8
  call void @llvm.lifetime.end.p0(i64 4, ptr %3) #8
  ret void
}

; Function Attrs: nounwind uwtable
define void @ff_mss12_model_update(ptr noundef %0, i32 noundef %1) #0 {
  %3 = alloca ptr, align 8
  %4 = alloca i32, align 4
  %5 = alloca i32, align 4
  %6 = alloca i32, align 4
  %7 = alloca i32, align 4
  store ptr %0, ptr %3, align 8, !tbaa !4
  store i32 %1, ptr %4, align 4, !tbaa !9
  call void @llvm.lifetime.start.p0(i64 4, ptr %5) #8
  %8 = load ptr, ptr %3, align 8, !tbaa !4
  %9 = getelementptr inbounds nuw %struct.Model, ptr %8, i32 0, i32 1
  %10 = load i32, ptr %4, align 4, !tbaa !9
  %11 = sext i32 %10 to i64
  %12 = getelementptr inbounds [257 x i16], ptr %9, i64 0, i64 %11
  %13 = load i16, ptr %12, align 2, !tbaa !11
  %14 = sext i16 %13 to i32
  %15 = load ptr, ptr %3, align 8, !tbaa !4
  %16 = getelementptr inbounds nuw %struct.Model, ptr %15, i32 0, i32 1
  %17 = load i32, ptr %4, align 4, !tbaa !9
  %18 = sub nsw i32 %17, 1
  %19 = sext i32 %18 to i64
  %20 = getelementptr inbounds [257 x i16], ptr %16, i64 0, i64 %19
  %21 = load i16, ptr %20, align 2, !tbaa !11
  %22 = sext i16 %21 to i32
  %23 = icmp eq i32 %14, %22
  br i1 %23, label %24, label %82

24:                                               ; preds = %2
  %25 = load i32, ptr %4, align 4, !tbaa !9
  store i32 %25, ptr %5, align 4, !tbaa !9
  br label %26

26:                                               ; preds = %44, %24
  %27 = load ptr, ptr %3, align 8, !tbaa !4
  %28 = getelementptr inbounds nuw %struct.Model, ptr %27, i32 0, i32 1
  %29 = load i32, ptr %5, align 4, !tbaa !9
  %30 = sub nsw i32 %29, 1
  %31 = sext i32 %30 to i64
  %32 = getelementptr inbounds [257 x i16], ptr %28, i64 0, i64 %31
  %33 = load i16, ptr %32, align 2, !tbaa !11
  %34 = sext i16 %33 to i32
  %35 = load ptr, ptr %3, align 8, !tbaa !4
  %36 = getelementptr inbounds nuw %struct.Model, ptr %35, i32 0, i32 1
  %37 = load i32, ptr %4, align 4, !tbaa !9
  %38 = sext i32 %37 to i64
  %39 = getelementptr inbounds [257 x i16], ptr %36, i64 0, i64 %38
  %40 = load i16, ptr %39, align 2, !tbaa !11
  %41 = sext i16 %40 to i32
  %42 = icmp eq i32 %34, %41
  br i1 %42, label %43, label %47

43:                                               ; preds = %26
  br label %44

44:                                               ; preds = %43
  %45 = load i32, ptr %5, align 4, !tbaa !9
  %46 = add nsw i32 %45, -1
  store i32 %46, ptr %5, align 4, !tbaa !9
  br label %26, !llvm.loop !13

47:                                               ; preds = %26
  %48 = load i32, ptr %5, align 4, !tbaa !9
  %49 = load i32, ptr %4, align 4, !tbaa !9
  %50 = icmp ne i32 %48, %49
  br i1 %50, label %51, label %81

51:                                               ; preds = %47
  call void @llvm.lifetime.start.p0(i64 4, ptr %6) #8
  call void @llvm.lifetime.start.p0(i64 4, ptr %7) #8
  %52 = load ptr, ptr %3, align 8, !tbaa !4
  %53 = getelementptr inbounds nuw %struct.Model, ptr %52, i32 0, i32 2
  %54 = load i32, ptr %4, align 4, !tbaa !9
  %55 = sext i32 %54 to i64
  %56 = getelementptr inbounds [257 x i8], ptr %53, i64 0, i64 %55
  %57 = load i8, ptr %56, align 1, !tbaa !15
  %58 = zext i8 %57 to i32
  store i32 %58, ptr %6, align 4, !tbaa !9
  %59 = load ptr, ptr %3, align 8, !tbaa !4
  %60 = getelementptr inbounds nuw %struct.Model, ptr %59, i32 0, i32 2
  %61 = load i32, ptr %5, align 4, !tbaa !9
  %62 = sext i32 %61 to i64
  %63 = getelementptr inbounds [257 x i8], ptr %60, i64 0, i64 %62
  %64 = load i8, ptr %63, align 1, !tbaa !15
  %65 = zext i8 %64 to i32
  store i32 %65, ptr %7, align 4, !tbaa !9
  %66 = load i32, ptr %7, align 4, !tbaa !9
  %67 = trunc i32 %66 to i8
  %68 = load ptr, ptr %3, align 8, !tbaa !4
  %69 = getelementptr inbounds nuw %struct.Model, ptr %68, i32 0, i32 2
  %70 = load i32, ptr %4, align 4, !tbaa !9
  %71 = sext i32 %70 to i64
  %72 = getelementptr inbounds [257 x i8], ptr %69, i64 0, i64 %71
  store i8 %67, ptr %72, align 1, !tbaa !15
  %73 = load i32, ptr %6, align 4, !tbaa !9
  %74 = trunc i32 %73 to i8
  %75 = load ptr, ptr %3, align 8, !tbaa !4
  %76 = getelementptr inbounds nuw %struct.Model, ptr %75, i32 0, i32 2
  %77 = load i32, ptr %5, align 4, !tbaa !9
  %78 = sext i32 %77 to i64
  %79 = getelementptr inbounds [257 x i8], ptr %76, i64 0, i64 %78
  store i8 %74, ptr %79, align 1, !tbaa !15
  %80 = load i32, ptr %5, align 4, !tbaa !9
  store i32 %80, ptr %4, align 4, !tbaa !9
  call void @llvm.lifetime.end.p0(i64 4, ptr %7) #8
  call void @llvm.lifetime.end.p0(i64 4, ptr %6) #8
  br label %81

81:                                               ; preds = %51, %47
  br label %82

82:                                               ; preds = %81, %2
  %83 = load ptr, ptr %3, align 8, !tbaa !4
  %84 = getelementptr inbounds nuw %struct.Model, ptr %83, i32 0, i32 1
  %85 = load i32, ptr %4, align 4, !tbaa !9
  %86 = sext i32 %85 to i64
  %87 = getelementptr inbounds [257 x i16], ptr %84, i64 0, i64 %86
  %88 = load i16, ptr %87, align 2, !tbaa !11
  %89 = add i16 %88, 1
  store i16 %89, ptr %87, align 2, !tbaa !11
  %90 = load i32, ptr %4, align 4, !tbaa !9
  %91 = sub nsw i32 %90, 1
  store i32 %91, ptr %5, align 4, !tbaa !9
  br label %92

92:                                               ; preds = %103, %82
  %93 = load i32, ptr %5, align 4, !tbaa !9
  %94 = icmp sge i32 %93, 0
  br i1 %94, label %95, label %106

95:                                               ; preds = %92
  %96 = load ptr, ptr %3, align 8, !tbaa !4
  %97 = getelementptr inbounds nuw %struct.Model, ptr %96, i32 0, i32 0
  %98 = load i32, ptr %5, align 4, !tbaa !9
  %99 = sext i32 %98 to i64
  %100 = getelementptr inbounds [257 x i16], ptr %97, i64 0, i64 %99
  %101 = load i16, ptr %100, align 2, !tbaa !11
  %102 = add i16 %101, 1
  store i16 %102, ptr %100, align 2, !tbaa !11
  br label %103

103:                                              ; preds = %95
  %104 = load i32, ptr %5, align 4, !tbaa !9
  %105 = add nsw i32 %104, -1
  store i32 %105, ptr %5, align 4, !tbaa !9
  br label %92, !llvm.loop !16

106:                                              ; preds = %92
  %107 = load ptr, ptr %3, align 8, !tbaa !4
  call void @model_rescale_weights(ptr noundef %107)
  call void @llvm.lifetime.end.p0(i64 4, ptr %5) #8
  ret void
}