; Function Attrs: nofree norecurse nosync nounwind memory(argmem: readwrite) uwtable
define void @ff_mss12_model_update(ptr noundef captures(none) %0, i32 noundef %1) local_unnamed_addr #0 {
  %3 = getelementptr inbounds nuw i8, ptr %0, i64 514
  %4 = sext i32 %1 to i64
  %5 = getelementptr inbounds [257 x i16], ptr %3, i64 0, i64 %4
  %6 = load i16, ptr %5, align 2, !tbaa !4
  %7 = add nsw i32 %1, -1
  %8 = sext i32 %7 to i64
  %9 = getelementptr inbounds [257 x i16], ptr %3, i64 0, i64 %8
  %10 = load i16, ptr %9, align 2, !tbaa !4
  %11 = icmp eq i16 %6, %10
  br i1 %11, label %.preheader, label %24

.preheader:                                       ; preds = %2, %.preheader
  %indvars.iv = phi i64 [ %indvars.iv.next, %.preheader ], [ %4, %2 ]
  %indvars.iv.next = add nsw i64 %indvars.iv, -1
  %12 = getelementptr inbounds [257 x i16], ptr %3, i64 0, i64 %indvars.iv.next
  %13 = load i16, ptr %12, align 2, !tbaa !4
  %14 = icmp eq i16 %13, %6
  br i1 %14, label %.preheader, label %15, !llvm.loop !8

15:                                               ; preds = %.preheader
  %16 = trunc nsw i64 %indvars.iv to i32
  %.not = icmp eq i32 %1, %16
  br i1 %.not, label %24, label %17

17:                                               ; preds = %15
  %18 = getelementptr inbounds nuw i8, ptr %0, i64 1028
  %19 = getelementptr inbounds [257 x i8], ptr %18, i64 0, i64 %4
  %20 = load i8, ptr %19, align 1, !tbaa !10
  %sext = shl i64 %indvars.iv, 32
  %21 = ashr exact i64 %sext, 32
  %22 = getelementptr inbounds [257 x i8], ptr %18, i64 0, i64 %21
  %23 = load i8, ptr %22, align 1, !tbaa !10
  store i8 %23, ptr %19, align 1, !tbaa !10
  store i8 %20, ptr %22, align 1, !tbaa !10
  %.phi.trans.insert = getelementptr inbounds [257 x i16], ptr %3, i64 0, i64 %21
  %.pre = load i16, ptr %.phi.trans.insert, align 2, !tbaa !4
  br label %24

24:                                               ; preds = %15, %17, %2
  %25 = phi i16 [ %6, %15 ], [ %.pre, %17 ], [ %6, %2 ]
  %.pre-phi = phi i64 [ %4, %15 ], [ %21, %17 ], [ %4, %2 ]
  %.0 = phi i32 [ %1, %15 ], [ %16, %17 ], [ %1, %2 ]
  %26 = getelementptr inbounds [257 x i16], ptr %3, i64 0, i64 %.pre-phi
  %27 = add i16 %25, 1
  store i16 %27, ptr %26, align 2, !tbaa !4
  %28 = icmp sgt i32 %.0, 0
  br i1 %28, label %.lr.ph.preheader, label %._crit_edge

.lr.ph.preheader:                                 ; preds = %24
  %29 = zext nneg i32 %.0 to i64
  br label %.lr.ph

.lr.ph:                                           ; preds = %.lr.ph.preheader, %.lr.ph
  %indvars.iv34 = phi i64 [ %29, %.lr.ph.preheader ], [ %indvars.iv.next35, %.lr.ph ]
  %indvars.iv.next35 = add nsw i64 %indvars.iv34, -1
  %30 = getelementptr inbounds nuw [257 x i16], ptr %0, i64 0, i64 %indvars.iv.next35
  %31 = load i16, ptr %30, align 2, !tbaa !4
  %32 = add i16 %31, 1
  store i16 %32, ptr %30, align 2, !tbaa !4
  %33 = icmp samesign ugt i64 %indvars.iv34, 1
  br i1 %33, label %.lr.ph, label %._crit_edge, !llvm.loop !11

._crit_edge:                                      ; preds = %.lr.ph, %24
  %34 = getelementptr inbounds nuw i8, ptr %0, i64 1292
  %35 = load i32, ptr %34, align 4, !tbaa !12
  %36 = icmp eq i32 %35, -1
  br i1 %36, label %37, label %._crit_edge22.i

._crit_edge22.i:                                  ; preds = %._crit_edge
  %.phi.trans.insert.i = getelementptr inbounds nuw i8, ptr %0, i64 1296
  %.pre.i = load i32, ptr %.phi.trans.insert.i, align 4, !tbaa !15
  %.pre23.i = load i16, ptr %0, align 4, !tbaa !4
  %.pre24.i = sext i16 %.pre23.i to i32
  br label %54

37:                                               ; preds = %._crit_edge
  %38 = getelementptr inbounds nuw i8, ptr %0, i64 1288
  %39 = load i32, ptr %38, align 4, !tbaa !16
  %40 = sext i32 %39 to i64
  %41 = getelementptr inbounds [257 x i16], ptr %3, i64 0, i64 %40
  %42 = load i16, ptr %41, align 2, !tbaa !4
  %43 = sext i16 %42 to i32
  %44 = shl nsw i32 %43, 1
  %45 = add nsw i32 %44, -1
  %46 = ashr i32 %45, 1
  %47 = load i16, ptr %0, align 4, !tbaa !4
  %48 = sext i16 %47 to i32
  %49 = shl nsw i32 %48, 2
  %50 = add nsw i32 %46, %49
  %51 = sdiv i32 %50, %45
  %52 = tail call range(i32 -163841, 16384) i32 @llvm.smin.i32(i32 %51, i32 16383)
  %53 = getelementptr inbounds nuw i8, ptr %0, i64 1296
  store i32 %52, ptr %53, align 4, !tbaa !15
  br label %54

54:                                               ; preds = %37, %._crit_edge22.i
  %.pre-phi.i = phi i32 [ %.pre24.i, %._crit_edge22.i ], [ %48, %37 ]
  %55 = phi i32 [ %.pre.i, %._crit_edge22.i ], [ %52, %37 ]
  %56 = icmp slt i32 %55, %.pre-phi.i
  br i1 %56, label %.lr.ph20.i, label %model_rescale_weights.exit

.lr.ph20.i:                                       ; preds = %54
  %57 = getelementptr inbounds nuw i8, ptr %0, i64 1288
  %58 = load i32, ptr %57, align 4, !tbaa !16
  %59 = icmp sgt i32 %58, -1
  br i1 %59, label %.lr.ph.us.preheader.i, label %.loopexit.i

.lr.ph.us.preheader.i:                            ; preds = %.lr.ph20.i
  %60 = zext nneg i32 %58 to i64
  br label %.lr.ph.us.i

.lr.ph.us.i:                                      ; preds = %.lr.ph.us.i.backedge, %.lr.ph.us.preheader.i
  %indvars.iv.i = phi i64 [ %60, %.lr.ph.us.preheader.i ], [ %indvars.iv.i.be, %.lr.ph.us.i.backedge ]
  %.019.us.i = phi i32 [ 0, %.lr.ph.us.preheader.i ], [ %.019.us.i.be, %.lr.ph.us.i.backedge ]
  %61 = trunc i32 %.019.us.i to i16
  %62 = getelementptr inbounds nuw [257 x i16], ptr %0, i64 0, i64 %indvars.iv.i
  store i16 %61, ptr %62, align 2, !tbaa !4
  %63 = getelementptr inbounds nuw [257 x i16], ptr %3, i64 0, i64 %indvars.iv.i
  %64 = load i16, ptr %63, align 2, !tbaa !4
  %65 = sext i16 %64 to i32
  %66 = add nsw i32 %65, 1
  %67 = lshr i32 %66, 1
  %68 = trunc i32 %67 to i16
  store i16 %68, ptr %63, align 2, !tbaa !4
  %sext.us.i = shl i32 %67, 16
  %69 = ashr exact i32 %sext.us.i, 16
  %70 = add nsw i32 %69, %.019.us.i
  %indvars.iv.next.i = add nsw i64 %indvars.iv.i, -1
  %71 = icmp sgt i64 %indvars.iv.i, 0
  br i1 %71, label %.lr.ph.us.i.backedge, label %..loopexit_crit_edge.us.i

.lr.ph.us.i.backedge:                             ; preds = %.lr.ph.us.i, %..loopexit_crit_edge.us.i
  %indvars.iv.i.be = phi i64 [ %indvars.iv.next.i, %.lr.ph.us.i ], [ %60, %..loopexit_crit_edge.us.i ]
  %.019.us.i.be = phi i32 [ %70, %.lr.ph.us.i ], [ 0, %..loopexit_crit_edge.us.i ]
  br label %.lr.ph.us.i, !llvm.loop !17

..loopexit_crit_edge.us.i:                        ; preds = %.lr.ph.us.i
  %72 = load i16, ptr %0, align 4, !tbaa !4
  %73 = sext i16 %72 to i32
  %74 = icmp slt i32 %55, %73
  br i1 %74, label %.lr.ph.us.i.backedge, label %model_rescale_weights.exit

.loopexit.i:                                      ; preds = %.lr.ph20.i, %.loopexit.i
  br label %.loopexit.i

model_rescale_weights.exit:                       ; preds = %..loopexit_crit_edge.us.i, %54
  ret void
}